EXPORTS
    _ZN3gcn10InputEvent7consumeEv @1
    _ZN3gcn10InputEventC1EPNS_6WidgetEbbbb @2
    _ZN3gcn10InputEventC2EPNS_6WidgetEbbbb @3
    _ZN3gcn10InputEventD0Ev @4
    _ZN3gcn10InputEventD1Ev @5
    _ZN3gcn10MouseEventC1EPNS_6WidgetEbbbbjjiii @6
    _ZN3gcn10MouseEventC2EPNS_6WidgetEbbbbjjiii @7
    _ZN3gcn10MouseInput12setTimeStampEi @8
    _ZN3gcn10MouseInput4setXEi @9
    _ZN3gcn10MouseInput4setYEi @10
    _ZN3gcn10MouseInput7setTypeEj @11
    _ZN3gcn10MouseInput9setButtonEj @12
    _ZN3gcn10MouseInputC1Ejjiii @13
    _ZN3gcn10MouseInputC2Ejjiii @14
    _ZN3gcn10ScrollArea10getContentEv @15
    _ZN3gcn10ScrollArea10setContentEPNS_6WidgetE @16
    _ZN3gcn10ScrollArea11drawHMarkerEPNS_8GraphicsE @17
    _ZN3gcn10ScrollArea11drawVMarkerEPNS_8GraphicsE @18
    _ZN3gcn10ScrollArea11getWidgetAtEii @19
    _ZN3gcn10ScrollArea12drawUpButtonEPNS_8GraphicsE @20
    _ZN3gcn10ScrollArea12mouseDraggedERNS_10MouseEventE @21
    _ZN3gcn10ScrollArea12mousePressedERNS_10MouseEventE @22
    _ZN3gcn10ScrollArea12setDimensionERKNS_9RectangleE @23
    _ZN3gcn10ScrollArea13checkPoliciesEv @24
    _ZN3gcn10ScrollArea13mouseReleasedERNS_10MouseEventE @25
    _ZN3gcn10ScrollArea14drawBackgroundEPNS_8GraphicsE @26
    _ZN3gcn10ScrollArea14drawDownButtonEPNS_8GraphicsE @27
    _ZN3gcn10ScrollArea14drawLeftButtonEPNS_8GraphicsE @28
    _ZN3gcn10ScrollArea14showWidgetPartEPNS_6WidgetENS_9RectangleE @29
    _ZN3gcn10ScrollArea15drawRightButtonEPNS_8GraphicsE @30
    _ZN3gcn10ScrollArea15getChildrenAreaEv @31
    _ZN3gcn10ScrollArea15setScrollAmountEii @32
    _ZN3gcn10ScrollArea15setScrollPolicyENS0_12ScrollPolicyES1_ @33
    _ZN3gcn10ScrollArea17mouseWheelMovedUpERNS_10MouseEventE @34
    _ZN3gcn10ScrollArea17setScrollbarWidthEi @35
    _ZN3gcn10ScrollArea19mouseWheelMovedDownERNS_10MouseEventE @36
    _ZN3gcn10ScrollArea20getUpButtonDimensionEv @37
    _ZN3gcn10ScrollArea20getVerticalMaxScrollEv @38
    _ZN3gcn10ScrollArea22getDownButtonDimensionEv @39
    _ZN3gcn10ScrollArea22getHorizontalMaxScrollEv @40
    _ZN3gcn10ScrollArea22getLeftButtonDimensionEv @41
    _ZN3gcn10ScrollArea23getRightButtonDimensionEv @42
    _ZN3gcn10ScrollArea23getVerticalBarDimensionEv @43
    _ZN3gcn10ScrollArea23setUpButtonScrollAmountEi @44
    _ZN3gcn10ScrollArea23setVerticalScrollAmountEi @45
    _ZN3gcn10ScrollArea23setVerticalScrollPolicyENS0_12ScrollPolicyE @46
    _ZN3gcn10ScrollArea25getHorizontalBarDimensionEv @47
    _ZN3gcn10ScrollArea25setDownButtonScrollAmountEi @48
    _ZN3gcn10ScrollArea25setHorizontalScrollAmountEi @49
    _ZN3gcn10ScrollArea25setHorizontalScrollPolicyENS0_12ScrollPolicyE @50
    _ZN3gcn10ScrollArea25setLeftButtonScrollAmountEi @51
    _ZN3gcn10ScrollArea26getVerticalMarkerDimensionEv @52
    _ZN3gcn10ScrollArea26setRightButtonScrollAmountEi @53
    _ZN3gcn10ScrollArea28getHorizontalMarkerDimensionEv @54
    _ZN3gcn10ScrollArea4drawEPNS_8GraphicsE @55
    _ZN3gcn10ScrollArea5logicEv @56
    _ZN3gcn10ScrollArea8drawHBarEPNS_8GraphicsE @57
    _ZN3gcn10ScrollArea8drawVBarEPNS_8GraphicsE @58
    _ZN3gcn10ScrollArea8setWidthEi @59
    _ZN3gcn10ScrollArea9setHeightEi @60
    _ZN3gcn10ScrollArea9setOpaqueEb @61
    _ZN3gcn10ScrollAreaC1EPNS_6WidgetE @62
    _ZN3gcn10ScrollAreaC1EPNS_6WidgetENS0_12ScrollPolicyES3_ @63
    _ZN3gcn10ScrollAreaC1Ev @64
    _ZN3gcn10ScrollAreaC2EPNS_6WidgetE @65
    _ZN3gcn10ScrollAreaC2EPNS_6WidgetENS0_12ScrollPolicyES3_ @66
    _ZN3gcn10ScrollAreaC2Ev @67
    _ZN3gcn10ScrollAreaD0Ev @68
    _ZN3gcn10ScrollAreaD1Ev @69
    _ZN3gcn10ScrollAreaD2Ev @70
    _ZN3gcn10TabbedArea10adjustSizeEv @71
    _ZN3gcn10TabbedArea10keyPressedERNS_8KeyEventE @72
    _ZN3gcn10TabbedArea12mousePressedERNS_10MouseEventE @73
    _ZN3gcn10TabbedArea12setDimensionERKNS_9RectangleE @74
    _ZN3gcn10TabbedArea13isTabSelectedEPNS_3TabE @75
    _ZN3gcn10TabbedArea14getSelectedTabEv @76
    _ZN3gcn10TabbedArea14setSelectedTabEPNS_3TabE @77
    _ZN3gcn10TabbedArea14setSelectedTabEj @78
    _ZN3gcn10TabbedArea18adjustTabPositionsEv @79
    _ZN3gcn10TabbedArea18removeTabWithIndexEj @80
    _ZN3gcn10TabbedArea4drawEPNS_8GraphicsE @81
    _ZN3gcn10TabbedArea5deathERKNS_5EventE @82
    _ZN3gcn10TabbedArea5logicEv @83
    _ZN3gcn10TabbedArea6actionERKNS_11ActionEventE @84
    _ZN3gcn10TabbedArea6addTabEPNS_3TabEPNS_6WidgetE @85
    _ZN3gcn10TabbedArea6addTabERKSsPNS_6WidgetE @86
    _ZN3gcn10TabbedArea7setSizeEii @87
    _ZN3gcn10TabbedArea8setWidthEi @88
    _ZN3gcn10TabbedArea9removeTabEPNS_3TabE @89
    _ZN3gcn10TabbedArea9setHeightEi @90
    _ZN3gcn10TabbedAreaC1Ev @91
    _ZN3gcn10TabbedAreaC2Ev @92
    _ZN3gcn10TabbedAreaD0Ev @93
    _ZN3gcn10TabbedAreaD1Ev @94
    _ZN3gcn10TabbedAreaD2Ev @95
    _ZN3gcn11ActionEventC1EPNS_6WidgetERKSs @96
    _ZN3gcn11ActionEventC2EPNS_6WidgetERKSs @97
    _ZN3gcn11ActionEventD0Ev @98
    _ZN3gcn11ActionEventD1Ev @99
    _ZN3gcn11ActionEventD2Ev @100
    _ZN3gcn11DefaultFont10drawStringEPNS_8GraphicsERKSsii @101
    _ZN3gcn11DefaultFont16getStringIndexAtERKSsi @102
    _ZN3gcn11DefaultFont9drawGlyphEPNS_8GraphicsEhii @103
    _ZN3gcn11DefaultFontD0Ev @104
    _ZN3gcn11DefaultFontD1Ev @105
    _ZN3gcn11ImageButton4drawEPNS_8GraphicsE @106
    _ZN3gcn11ImageButton8setImageEPKNS_5ImageE @107
    _ZN3gcn11ImageButtonC1EPKNS_5ImageE @108
    _ZN3gcn11ImageButtonC1ERKSs @109
    _ZN3gcn11ImageButtonC1Ev @110
    _ZN3gcn11ImageButtonC2EPKNS_5ImageE @111
    _ZN3gcn11ImageButtonC2ERKSs @112
    _ZN3gcn11ImageButtonC2Ev @113
    _ZN3gcn11ImageButtonD0Ev @114
    _ZN3gcn11ImageButtonD1Ev @115
    _ZN3gcn11ImageButtonD2Ev @116
    _ZN3gcn11KeyListener10keyPressedERNS_8KeyEventE @117
    _ZN3gcn11KeyListener11keyReleasedERNS_8KeyEventE @118
    _ZN3gcn11KeyListenerD0Ev @119
    _ZN3gcn11KeyListenerD1Ev @120
    _ZN3gcn11RadioButton10adjustSizeEv @121
    _ZN3gcn11RadioButton10keyPressedERNS_8KeyEventE @122
    _ZN3gcn11RadioButton10setCaptionESs @123
    _ZN3gcn11RadioButton11setSelectedEb @124
    _ZN3gcn11RadioButton12mouseClickedERNS_10MouseEventE @125
    _ZN3gcn11RadioButton12mouseDraggedERNS_10MouseEventE @126
    _ZN3gcn11RadioButton4drawEPNS_8GraphicsE @127
    _ZN3gcn11RadioButton7drawBoxEPNS_8GraphicsE @128
    _ZN3gcn11RadioButton8setGroupERKSs @129
    _ZN3gcn11RadioButton9mGroupMapE @130 DATA
    _ZN3gcn11RadioButtonC1ERKSsS2_b @131
    _ZN3gcn11RadioButtonC1Ev @132
    _ZN3gcn11RadioButtonC2ERKSsS2_b @133
    _ZN3gcn11RadioButtonC2Ev @134
    _ZN3gcn11RadioButtonD0Ev @135
    _ZN3gcn11RadioButtonD1Ev @136
    _ZN3gcn11RadioButtonD2Ev @137
    _ZN3gcn12FocusHandler11tabPreviousEv @138
    _ZN3gcn12FocusHandler12requestFocusEPNS_6WidgetE @139
    _ZN3gcn12FocusHandler13focusPreviousEv @140
    _ZN3gcn12FocusHandler16getDraggedWidgetEv @141
    _ZN3gcn12FocusHandler16setDraggedWidgetEPNS_6WidgetE @142
    _ZN3gcn12FocusHandler17releaseModalFocusEPNS_6WidgetE @143
    _ZN3gcn12FocusHandler17requestModalFocusEPNS_6WidgetE @144
    _ZN3gcn12FocusHandler20getLastWidgetPressedEv @145
    _ZN3gcn12FocusHandler20setLastWidgetPressedEPNS_6WidgetE @146
    _ZN3gcn12FocusHandler22getLastWidgetWithMouseEv @147
    _ZN3gcn12FocusHandler22setLastWidgetWithMouseEPNS_6WidgetE @148
    _ZN3gcn12FocusHandler24distributeFocusLostEventERKNS_5EventE @149
    _ZN3gcn12FocusHandler26distributeFocusGainedEventERKNS_5EventE @150
    _ZN3gcn12FocusHandler27getLastWidgetWithModalFocusEv @151
    _ZN3gcn12FocusHandler27releaseModalMouseInputFocusEPNS_6WidgetE @152
    _ZN3gcn12FocusHandler27requestModalMouseInputFocusEPNS_6WidgetE @153
    _ZN3gcn12FocusHandler27setLastWidgetWithModalFocusEPNS_6WidgetE @154
    _ZN3gcn12FocusHandler37getLastWidgetWithModalMouseInputFocusEv @155
    _ZN3gcn12FocusHandler37setLastWidgetWithModalMouseInputFocusEPNS_6WidgetE @156
    _ZN3gcn12FocusHandler3addEPNS_6WidgetE @157
    _ZN3gcn12FocusHandler6removeEPNS_6WidgetE @158
    _ZN3gcn12FocusHandler7tabNextEv @159
    _ZN3gcn12FocusHandler9focusNextEv @160
    _ZN3gcn12FocusHandler9focusNoneEv @161
    _ZN3gcn12FocusHandlerC1Ev @162
    _ZN3gcn12FocusHandlerC2Ev @163
    _ZN3gcn12FocusHandlerD0Ev @164
    _ZN3gcn12FocusHandlerD1Ev @165
    _ZN3gcn12GenericInput10_pollInputEv @166
    _ZN3gcn12GenericInput14pushKeyPressedEi @167
    _ZN3gcn12GenericInput14pushMouseMovedEii @168
    _ZN3gcn12GenericInput15dequeueKeyInputEv @169
    _ZN3gcn12GenericInput15isKeyQueueEmptyEv @170
    _ZN3gcn12GenericInput15pushKeyReleasedEi @171
    _ZN3gcn12GenericInput17dequeueMouseInputEv @172
    _ZN3gcn12GenericInput17isMouseQueueEmptyEv @173
    _ZN3gcn12GenericInput21pushMouseWheelMovedUpEii @174
    _ZN3gcn12GenericInput22pushMouseButtonPressedEiii @175
    _ZN3gcn12GenericInput23pushMouseButtonReleasedEiii @176
    _ZN3gcn12GenericInput23pushMouseWheelMovedDownEii @177
    _ZN3gcn12GenericInputC1Ev @178
    _ZN3gcn12GenericInputC2Ev @179
    _ZN3gcn13ClipRectangleC1Eiiiiii @180
    _ZN3gcn13ClipRectangleC1Ev @181
    _ZN3gcn13ClipRectangleC2Eiiiiii @182
    _ZN3gcn13ClipRectangleC2Ev @183
    _ZN3gcn13ClipRectangleaSERKNS_9RectangleE @184
    _ZN3gcn13DeathListenerD0Ev @185
    _ZN3gcn13DeathListenerD1Ev @186
    _ZN3gcn13FocusListener11focusGainedERKNS_5EventE @187
    _ZN3gcn13FocusListener9focusLostERKNS_5EventE @188
    _ZN3gcn13FocusListenerD0Ev @189
    _ZN3gcn13FocusListenerD1Ev @190
    _ZN3gcn13MouseListener10mouseMovedERNS_10MouseEventE @191
    _ZN3gcn13MouseListener11mouseExitedERNS_10MouseEventE @192
    _ZN3gcn13MouseListener12mouseClickedERNS_10MouseEventE @193
    _ZN3gcn13MouseListener12mouseDraggedERNS_10MouseEventE @194
    _ZN3gcn13MouseListener12mouseEnteredERNS_10MouseEventE @195
    _ZN3gcn13MouseListener12mousePressedERNS_10MouseEventE @196
    _ZN3gcn13MouseListener13mouseReleasedERNS_10MouseEventE @197
    _ZN3gcn13MouseListener17mouseWheelMovedUpERNS_10MouseEventE @198
    _ZN3gcn13MouseListener19mouseWheelMovedDownERNS_10MouseEventE @199
    _ZN3gcn13MouseListenerD0Ev @200
    _ZN3gcn13MouseListenerD1Ev @201
    _ZN3gcn14ActionListenerD0Ev @202
    _ZN3gcn14ActionListenerD1Ev @203
    _ZN3gcn14BasicContainer11getWidgetAtEii @204
    _ZN3gcn14BasicContainer12drawChildrenEPNS_8GraphicsE @205
    _ZN3gcn14BasicContainer12moveToBottomEPNS_6WidgetE @206
    _ZN3gcn14BasicContainer13focusPreviousEv @207
    _ZN3gcn14BasicContainer13logicChildrenEv @208
    _ZN3gcn14BasicContainer14findWidgetByIdERKSs @209
    _ZN3gcn14BasicContainer14showWidgetPartEPNS_6WidgetENS_9RectangleE @210
    _ZN3gcn14BasicContainer15getChildrenAreaEv @211
    _ZN3gcn14BasicContainer16_setFocusHandlerEPNS_12FocusHandlerE @212
    _ZN3gcn14BasicContainer23setInternalFocusHandlerEPNS_12FocusHandlerE @213
    _ZN3gcn14BasicContainer3addEPNS_6WidgetE @214
    _ZN3gcn14BasicContainer5clearEv @215
    _ZN3gcn14BasicContainer5deathERKNS_5EventE @216
    _ZN3gcn14BasicContainer5logicEv @217
    _ZN3gcn14BasicContainer6removeEPNS_6WidgetE @218
    _ZN3gcn14BasicContainer9focusNextEv @219
    _ZN3gcn14BasicContainer9moveToTopEPNS_6WidgetE @220
    _ZN3gcn14BasicContainerD0Ev @221
    _ZN3gcn14BasicContainerD1Ev @222
    _ZN3gcn14BasicContainerD2Ev @223
    _ZN3gcn14SelectionEventC1EPNS_6WidgetE @224
    _ZN3gcn14SelectionEventC2EPNS_6WidgetE @225
    _ZN3gcn14SelectionEventD0Ev @226
    _ZN3gcn14SelectionEventD1Ev @227
    _ZN3gcn14SelectionEventD2Ev @228
    _ZN3gcn17SelectionListener12valueChangedERKNS_14SelectionEventE @229
    _ZN3gcn17SelectionListenerD0Ev @230
    _ZN3gcn17SelectionListenerD1Ev @231
    _ZN3gcn3Gui11getWidgetAtEii @232
    _ZN3gcn3Gui11setGraphicsEPNS_8GraphicsE @233
    _ZN3gcn3Gui14handleKeyInputEv @234
    _ZN3gcn3Gui16handleModalFocusEv @235
    _ZN3gcn3Gui16handleMouseInputEv @236
    _ZN3gcn3Gui16handleMouseMovedERKNS_10MouseInputE @237
    _ZN3gcn3Gui16isTabbingEnabledEv @238
    _ZN3gcn3Gui17getKeyEventSourceEv @239
    _ZN3gcn3Gui17setTabbingEnabledEb @240
    _ZN3gcn3Gui18distributeKeyEventERNS_8KeyEventE @241
    _ZN3gcn3Gui18handleMousePressedERKNS_10MouseInputE @242
    _ZN3gcn3Gui19getMouseEventSourceEii @243
    _ZN3gcn3Gui19handleMouseReleasedERKNS_10MouseInputE @244
    _ZN3gcn3Gui20addGlobalKeyListenerEPNS_11KeyListenerE @245
    _ZN3gcn3Gui20distributeMouseEventEPNS_6WidgetEiiiibb @246
    _ZN3gcn3Gui22handleModalFocusGainedEv @247
    _ZN3gcn3Gui23handleMouseWheelMovedUpERKNS_10MouseInputE @248
    _ZN3gcn3Gui23removeGlobalKeyListenerEPNS_11KeyListenerE @249
    _ZN3gcn3Gui24handleModalFocusReleasedEv @250
    _ZN3gcn3Gui25handleMouseWheelMovedDownERKNS_10MouseInputE @251
    _ZN3gcn3Gui26handleModalMouseInputFocusEv @252
    _ZN3gcn3Gui38distributeKeyEventToGlobalKeyListenersERNS_8KeyEventE @253
    _ZN3gcn3Gui4drawEv @254
    _ZN3gcn3Gui5logicEv @255
    _ZN3gcn3Gui6setTopEPNS_6WidgetE @256
    _ZN3gcn3Gui8setInputEPNS_5InputE @257
    _ZN3gcn3Gui9focusNoneEv @258
    _ZN3gcn3GuiC1Ev @259
    _ZN3gcn3GuiC2Ev @260
    _ZN3gcn3GuiD0Ev @261
    _ZN3gcn3GuiD1Ev @262
    _ZN3gcn3GuiD2Ev @263
    _ZN3gcn3KeyC1Ei @264
    _ZN3gcn3KeyC2Ei @265
    _ZN3gcn3Tab10adjustSizeEv @266
    _ZN3gcn3Tab10setCaptionERKSs @267
    _ZN3gcn3Tab11mouseExitedERNS_10MouseEventE @268
    _ZN3gcn3Tab12mouseEnteredERNS_10MouseEventE @269
    _ZN3gcn3Tab13getTabbedAreaEv @270
    _ZN3gcn3Tab13setTabbedAreaEPNS_10TabbedAreaE @271
    _ZN3gcn3Tab4drawEPNS_8GraphicsE @272
    _ZN3gcn3TabC1Ev @273
    _ZN3gcn3TabC2Ev @274
    _ZN3gcn3TabD0Ev @275
    _ZN3gcn3TabD1Ev @276
    _ZN3gcn3TabD2Ev @277
    _ZN3gcn4FontD0Ev @278
    _ZN3gcn4FontD1Ev @279
    _ZN3gcn4Icon4drawEPNS_8GraphicsE @280
    _ZN3gcn4Icon8setImageEPKNS_5ImageE @281
    _ZN3gcn4IconC1EPKNS_5ImageE @282
    _ZN3gcn4IconC1ERKSs @283
    _ZN3gcn4IconC1Ev @284
    _ZN3gcn4IconC2EPKNS_5ImageE @285
    _ZN3gcn4IconC2ERKSs @286
    _ZN3gcn4IconC2Ev @287
    _ZN3gcn4IconD0Ev @288
    _ZN3gcn4IconD1Ev @289
    _ZN3gcn4IconD2Ev @290
    _ZN3gcn5ColorC1Ei @291
    _ZN3gcn5ColorC1Eiiii @292
    _ZN3gcn5ColorC1Ev @293
    _ZN3gcn5ColorC2Ei @294
    _ZN3gcn5ColorC2Eiiii @295
    _ZN3gcn5ColorC2Ev @296
    _ZN3gcn5EventC1EPNS_6WidgetE @297
    _ZN3gcn5EventC2EPNS_6WidgetE @298
    _ZN3gcn5EventD0Ev @299
    _ZN3gcn5EventD1Ev @300
    _ZN3gcn5EventD2Ev @301
    _ZN3gcn5Image12mImageLoaderE @302 DATA
    _ZN3gcn5Image14getImageLoaderEv @303
    _ZN3gcn5Image14setImageLoaderEPNS_11ImageLoaderE @304
    _ZN3gcn5Image4loadERKSsb @305
    _ZN3gcn5ImageC1Ev @306
    _ZN3gcn5ImageC2Ev @307
    _ZN3gcn5ImageD0Ev @308
    _ZN3gcn5ImageD1Ev @309
    _ZN3gcn5ImageD2Ev @310
    _ZN3gcn5InputD0Ev @311
    _ZN3gcn5InputD1Ev @312
    _ZN3gcn5Label10adjustSizeEv @313
    _ZN3gcn5Label10setCaptionERKSs @314
    _ZN3gcn5Label12setAlignmentENS_8Graphics9AlignmentE @315
    _ZN3gcn5Label4drawEPNS_8GraphicsE @316
    _ZN3gcn5LabelC1ERKSs @317
    _ZN3gcn5LabelC1Ev @318
    _ZN3gcn5LabelC2ERKSs @319
    _ZN3gcn5LabelC2Ev @320
    _ZN3gcn6Button10adjustSizeEv @321
    _ZN3gcn6Button10keyPressedERNS_8KeyEventE @322
    _ZN3gcn6Button10setCaptionERKSs @323
    _ZN3gcn6Button10setSpacingEj @324
    _ZN3gcn6Button11keyReleasedERNS_8KeyEventE @325
    _ZN3gcn6Button11mouseExitedERNS_10MouseEventE @326
    _ZN3gcn6Button12mouseDraggedERNS_10MouseEventE @327
    _ZN3gcn6Button12mouseEnteredERNS_10MouseEventE @328
    _ZN3gcn6Button12mousePressedERNS_10MouseEventE @329
    _ZN3gcn6Button12setAlignmentENS_8Graphics9AlignmentE @330
    _ZN3gcn6Button13mouseReleasedERNS_10MouseEventE @331
    _ZN3gcn6Button4drawEPNS_8GraphicsE @332
    _ZN3gcn6Button9focusLostERKNS_5EventE @333
    _ZN3gcn6ButtonC1ERKSs @334
    _ZN3gcn6ButtonC1Ev @335
    _ZN3gcn6ButtonC2ERKSs @336
    _ZN3gcn6ButtonC2Ev @337
    _ZN3gcn6Slider10drawMarkerEPNS_8GraphicsE @338
    _ZN3gcn6Slider10keyPressedERNS_8KeyEventE @339
    _ZN3gcn6Slider11setScaleEndEd @340
    _ZN3gcn6Slider12mouseDraggedERNS_10MouseEventE @341
    _ZN3gcn6Slider12mousePressedERNS_10MouseEventE @342
    _ZN3gcn6Slider13setScaleStartEd @343
    _ZN3gcn6Slider13setStepLengthEd @344
    _ZN3gcn6Slider14setOrientationENS0_11OrientationE @345
    _ZN3gcn6Slider15setMarkerLengthEi @346
    _ZN3gcn6Slider17mouseWheelMovedUpERNS_10MouseEventE @347
    _ZN3gcn6Slider19mouseWheelMovedDownERNS_10MouseEventE @348
    _ZN3gcn6Slider4drawEPNS_8GraphicsE @349
    _ZN3gcn6Slider8setScaleEdd @350
    _ZN3gcn6Slider8setValueEd @351
    _ZN3gcn6SliderC1Ed @352
    _ZN3gcn6SliderC1Edd @353
    _ZN3gcn6SliderC2Ed @354
    _ZN3gcn6SliderC2Edd @355
    _ZN3gcn6SliderD0Ev @356
    _ZN3gcn6SliderD1Ev @357
    _ZN3gcn6Widget10_setParentEPS0_ @358
    _ZN3gcn6Widget10setEnabledEb @359
    _ZN3gcn6Widget10setVisibleEb @360
    _ZN3gcn6Widget11fontChangedEv @361
    _ZN3gcn6Widget11getWidgetAtEii @362
    _ZN3gcn6Widget11mGlobalFontE @363 DATA
    _ZN3gcn6Widget11setPositionEii @364
    _ZN3gcn6Widget12mDefaultFontE @365 DATA
    _ZN3gcn6Widget12moveToBottomEPS0_ @366
    _ZN3gcn6Widget12requestFocusEv @367
    _ZN3gcn6Widget12setBaseColorERKNS_5ColorE @368
    _ZN3gcn6Widget12setDimensionERKNS_9RectangleE @369
    _ZN3gcn6Widget12setFocusableEb @370
    _ZN3gcn6Widget12setFrameSizeEj @371
    _ZN3gcn6Widget12widgetExistsEPKS0_ @372
    _ZN3gcn6Widget13focusPreviousEv @373
    _ZN3gcn6Widget13setGlobalFontEPNS_4FontE @374
    _ZN3gcn6Widget14addKeyListenerEPNS_11KeyListenerE @375
    _ZN3gcn6Widget14showWidgetPartEPS0_NS_9RectangleE @376
    _ZN3gcn6Widget15getChildrenAreaEv @377
    _ZN3gcn6Widget15setTabInEnabledEb @378
    _ZN3gcn6Widget16_getFocusHandlerEv @379
    _ZN3gcn6Widget16_getKeyListenersEv @380
    _ZN3gcn6Widget16_setFocusHandlerEPNS_12FocusHandlerE @381
    _ZN3gcn6Widget16addDeathListenerEPNS_13DeathListenerE @382
    _ZN3gcn6Widget16addFocusListenerEPNS_13FocusListenerE @383
    _ZN3gcn6Widget16addMouseListenerEPNS_13MouseListenerE @384
    _ZN3gcn6Widget16requestMoveToTopEv @385
    _ZN3gcn6Widget16setActionEventIdERKSs @386
    _ZN3gcn6Widget16setTabOutEnabledEb @387
    _ZN3gcn6Widget17addActionListenerEPNS_14ActionListenerE @388
    _ZN3gcn6Widget17addWidgetListenerEPNS_14WidgetListenerE @389
    _ZN3gcn6Widget17releaseModalFocusEv @390
    _ZN3gcn6Widget17removeKeyListenerEPNS_11KeyListenerE @391
    _ZN3gcn6Widget17requestModalFocusEv @392
    _ZN3gcn6Widget17setSelectionColorERKNS_5ColorE @393
    _ZN3gcn6Widget18_getFocusListenersEv @394
    _ZN3gcn6Widget18_getMouseListenersEv @395
    _ZN3gcn6Widget18setBackgroundColorERKNS_5ColorE @396
    _ZN3gcn6Widget18setForegroundColorERKNS_5ColorE @397
    _ZN3gcn6Widget19removeDeathListenerEPNS_13DeathListenerE @398
    _ZN3gcn6Widget19removeFocusListenerEPNS_13FocusListenerE @399
    _ZN3gcn6Widget19removeMouseListenerEPNS_13MouseListenerE @400
    _ZN3gcn6Widget19requestMoveToBottomEv @401
    _ZN3gcn6Widget20distributeMovedEventEv @402
    _ZN3gcn6Widget20distributeShownEventEv @403
    _ZN3gcn6Widget20removeActionListenerEPNS_14ActionListenerE @404
    _ZN3gcn6Widget20removeWidgetListenerEPNS_14WidgetListenerE @405
    _ZN3gcn6Widget21distributeActionEventEv @406
    _ZN3gcn6Widget21distributeHiddenEventEv @407
    _ZN3gcn6Widget22distributeResizedEventEv @408
    _ZN3gcn6Widget23setInternalFocusHandlerEPNS_12FocusHandlerE @409
    _ZN3gcn6Widget24_getInternalFocusHandlerEv @410
    _ZN3gcn6Widget27releaseModalMouseInputFocusEv @411
    _ZN3gcn6Widget27requestModalMouseInputFocusEv @412
    _ZN3gcn6Widget4setXEi @413
    _ZN3gcn6Widget4setYEi @414
    _ZN3gcn6Widget5getIdEv @415
    _ZN3gcn6Widget5logicEv @416
    _ZN3gcn6Widget5setIdERKSs @417
    _ZN3gcn6Widget7setFontEPNS_4FontE @418
    _ZN3gcn6Widget7setSizeEii @419
    _ZN3gcn6Widget8mWidgetsE @420 DATA
    _ZN3gcn6Widget8setWidthEi @421
    _ZN3gcn6Widget8showPartENS_9RectangleE @422
    _ZN3gcn6Widget9drawFrameEPNS_8GraphicsE @423
    _ZN3gcn6Widget9focusNextEv @424
    _ZN3gcn6Widget9moveToTopEPS0_ @425
    _ZN3gcn6Widget9setHeightEi @426
    _ZN3gcn6WidgetC1Ev @427
    _ZN3gcn6WidgetC2Ev @428
    _ZN3gcn6WidgetD0Ev @429
    _ZN3gcn6WidgetD1Ev @430
    _ZN3gcn6WidgetD2Ev @431
    _ZN3gcn6Window10setCaptionERKSs @432
    _ZN3gcn6Window10setMovableEb @433
    _ZN3gcn6Window10setPaddingEj @434
    _ZN3gcn6Window12mouseDraggedERNS_10MouseEventE @435
    _ZN3gcn6Window12mousePressedERNS_10MouseEventE @436
    _ZN3gcn6Window12setAlignmentENS_8Graphics9AlignmentE @437
    _ZN3gcn6Window13mouseReleasedERNS_10MouseEventE @438
    _ZN3gcn6Window15getChildrenAreaEv @439
    _ZN3gcn6Window15resizeToContentEv @440
    _ZN3gcn6Window17getTitleBarHeightEv @441
    _ZN3gcn6Window17setTitleBarHeightEj @442
    _ZN3gcn6Window4drawEPNS_8GraphicsE @443
    _ZN3gcn6Window8isOpaqueEv @444
    _ZN3gcn6Window9setOpaqueEb @445
    _ZN3gcn6WindowC1ERKSs @446
    _ZN3gcn6WindowC1Ev @447
    _ZN3gcn6WindowC2ERKSs @448
    _ZN3gcn6WindowC2Ev @449
    _ZN3gcn6WindowD0Ev @450
    _ZN3gcn6WindowD1Ev @451
    _ZN3gcn6WindowD2Ev @452
    _ZN3gcn7ListBox10adjustSizeEv @453
    _ZN3gcn7ListBox10keyPressedERNS_8KeyEventE @454
    _ZN3gcn7ListBox11setSelectedEi @455
    _ZN3gcn7ListBox12getListModelEv @456
    _ZN3gcn7ListBox12mouseDraggedERNS_10MouseEventE @457
    _ZN3gcn7ListBox12mousePressedERNS_10MouseEventE @458
    _ZN3gcn7ListBox12setListModelEPNS_9ListModelE @459
    _ZN3gcn7ListBox17mouseWheelMovedUpERNS_10MouseEventE @460
    _ZN3gcn7ListBox18setWrappingEnabledEb @461
    _ZN3gcn7ListBox19mouseWheelMovedDownERNS_10MouseEventE @462
    _ZN3gcn7ListBox20addSelectionListenerEPNS_17SelectionListenerE @463
    _ZN3gcn7ListBox23removeSelectionListenerEPNS_17SelectionListenerE @464
    _ZN3gcn7ListBox27distributeValueChangedEventEv @465
    _ZN3gcn7ListBox4drawEPNS_8GraphicsE @466
    _ZN3gcn7ListBox5logicEv @467
    _ZN3gcn7ListBoxC1EPNS_9ListModelE @468
    _ZN3gcn7ListBoxC1Ev @469
    _ZN3gcn7ListBoxC2EPNS_9ListModelE @470
    _ZN3gcn7ListBoxC2Ev @471
    _ZN3gcn7ListBoxD0Ev @472
    _ZN3gcn7ListBoxD1Ev @473
    _ZN3gcn7TextBox10adjustSizeEv @474
    _ZN3gcn7TextBox10keyPressedERNS_8KeyEventE @475
    _ZN3gcn7TextBox10setTextRowEiRKSs @476
    _ZN3gcn7TextBox11fontChangedEv @477
    _ZN3gcn7TextBox11setCaretRowEi @478
    _ZN3gcn7TextBox11setEditableEb @479
    _ZN3gcn7TextBox12mouseDraggedERNS_10MouseEventE @480
    _ZN3gcn7TextBox12mousePressedERNS_10MouseEventE @481
    _ZN3gcn7TextBox13scrollToCaretEv @482
    _ZN3gcn7TextBox14setCaretColumnEi @483
    _ZN3gcn7TextBox16setCaretPositionEj @484
    _ZN3gcn7TextBox17setCaretRowColumnEii @485
    _ZN3gcn7TextBox4drawEPNS_8GraphicsE @486
    _ZN3gcn7TextBox6addRowESs @487
    _ZN3gcn7TextBox7setTextERKSs @488
    _ZN3gcn7TextBox8isOpaqueEv @489
    _ZN3gcn7TextBox9drawCaretEPNS_8GraphicsEii @490
    _ZN3gcn7TextBox9setOpaqueEb @491
    _ZN3gcn7TextBoxC1ERKSs @492
    _ZN3gcn7TextBoxC1Ev @493
    _ZN3gcn7TextBoxC2ERKSs @494
    _ZN3gcn7TextBoxC2Ev @495
    _ZN3gcn8CheckBox10adjustSizeEv @496
    _ZN3gcn8CheckBox10keyPressedERNS_8KeyEventE @497
    _ZN3gcn8CheckBox10setCaptionERKSs @498
    _ZN3gcn8CheckBox11setSelectedEb @499
    _ZN3gcn8CheckBox12mouseClickedERNS_10MouseEventE @500
    _ZN3gcn8CheckBox12mouseDraggedERNS_10MouseEventE @501
    _ZN3gcn8CheckBox14toggleSelectedEv @502
    _ZN3gcn8CheckBox4drawEPNS_8GraphicsE @503
    _ZN3gcn8CheckBox7drawBoxEPNS_8GraphicsE @504
    _ZN3gcn8CheckBoxC1ERKSsb @505
    _ZN3gcn8CheckBoxC1Ev @506
    _ZN3gcn8CheckBoxC2ERKSsb @507
    _ZN3gcn8CheckBoxC2Ev @508
    _ZN3gcn8CheckBoxD0Ev @509
    _ZN3gcn8CheckBoxD1Ev @510
    _ZN3gcn8DropDown10drawButtonEPNS_8GraphicsE @511
    _ZN3gcn8DropDown10keyPressedERNS_8KeyEventE @512
    _ZN3gcn8DropDown11setSelectedEi @513
    _ZN3gcn8DropDown12adjustHeightEv @514
    _ZN3gcn8DropDown12getListModelEv @515
    _ZN3gcn8DropDown12mouseDraggedERNS_10MouseEventE @516
    _ZN3gcn8DropDown12mousePressedERNS_10MouseEventE @517
    _ZN3gcn8DropDown12setBaseColorERKNS_5ColorE @518
    _ZN3gcn8DropDown12setListModelEPNS_9ListModelE @519
    _ZN3gcn8DropDown12valueChangedERKNS_14SelectionEventE @520
    _ZN3gcn8DropDown13mouseReleasedERNS_10MouseEventE @521
    _ZN3gcn8DropDown15getChildrenAreaEv @522
    _ZN3gcn8DropDown17mouseWheelMovedUpERNS_10MouseEventE @523
    _ZN3gcn8DropDown17setSelectionColorERKNS_5ColorE @524
    _ZN3gcn8DropDown18setBackgroundColorERKNS_5ColorE @525
    _ZN3gcn8DropDown18setForegroundColorERKNS_5ColorE @526
    _ZN3gcn8DropDown19mouseWheelMovedDownERNS_10MouseEventE @527
    _ZN3gcn8DropDown20addSelectionListenerEPNS_17SelectionListenerE @528
    _ZN3gcn8DropDown23removeSelectionListenerEPNS_17SelectionListenerE @529
    _ZN3gcn8DropDown27distributeValueChangedEventEv @530
    _ZN3gcn8DropDown4drawEPNS_8GraphicsE @531
    _ZN3gcn8DropDown5deathERKNS_5EventE @532
    _ZN3gcn8DropDown6actionERKNS_11ActionEventE @533
    _ZN3gcn8DropDown6foldUpEv @534
    _ZN3gcn8DropDown7setFontEPNS_4FontE @535
    _ZN3gcn8DropDown8dropDownEv @536
    _ZN3gcn8DropDown9focusLostERKNS_5EventE @537
    _ZN3gcn8DropDownC1EPNS_9ListModelEPNS_10ScrollAreaEPNS_7ListBoxE @538
    _ZN3gcn8DropDownC2EPNS_9ListModelEPNS_10ScrollAreaEPNS_7ListBoxE @539
    _ZN3gcn8DropDownD0Ev @540
    _ZN3gcn8DropDownD1Ev @541
    _ZN3gcn8DropDownD2Ev @542
    _ZN3gcn8Graphics10_beginDrawEv @543
    _ZN3gcn8Graphics11popClipAreaEv @544
    _ZN3gcn8Graphics12pushClipAreaENS_9RectangleE @545
    _ZN3gcn8Graphics18getCurrentClipAreaEv @546
    _ZN3gcn8Graphics7setFontEPNS_4FontE @547
    _ZN3gcn8Graphics8_endDrawEv @548
    _ZN3gcn8Graphics8drawTextERKSsiiNS0_9AlignmentE @549
    _ZN3gcn8Graphics9drawImageEPKNS_5ImageEii @550
    _ZN3gcn8GraphicsC1Ev @551
    _ZN3gcn8GraphicsC2Ev @552
    _ZN3gcn8GraphicsD0Ev @553
    _ZN3gcn8GraphicsD1Ev @554
    _ZN3gcn8KeyEventC1EPNS_6WidgetEbbbbjbRKNS_3KeyE @555
    _ZN3gcn8KeyEventC2EPNS_6WidgetEbbbbjbRKNS_3KeyE @556
    _ZN3gcn8KeyEventD0Ev @557
    _ZN3gcn8KeyEventD1Ev @558
    _ZN3gcn8KeyEventD2Ev @559
    _ZN3gcn8KeyInput13setAltPressedEb @560
    _ZN3gcn8KeyInput13setNumericPadEb @561
    _ZN3gcn8KeyInput14setMetaPressedEb @562
    _ZN3gcn8KeyInput15setShiftPressedEb @563
    _ZN3gcn8KeyInput17setControlPressedEb @564
    _ZN3gcn8KeyInput6setKeyERKNS_3KeyE @565
    _ZN3gcn8KeyInput7setTypeEj @566
    _ZN3gcn8KeyInputC1ERKNS_3KeyEj @567
    _ZN3gcn8KeyInputC2ERKNS_3KeyEj @568
    _ZN3gcn9Container14findWidgetByIdERKSs @569
    _ZN3gcn9Container3addEPNS_6WidgetE @570
    _ZN3gcn9Container3addEPNS_6WidgetEii @571
    _ZN3gcn9Container4drawEPNS_8GraphicsE @572
    _ZN3gcn9Container5clearEv @573
    _ZN3gcn9Container6removeEPNS_6WidgetE @574
    _ZN3gcn9Container9setOpaqueEb @575
    _ZN3gcn9ContainerC1Ev @576
    _ZN3gcn9ContainerC2Ev @577
    _ZN3gcn9ContainerD0Ev @578
    _ZN3gcn9ContainerD1Ev @579
    _ZN3gcn9ContainerD2Ev @580
    _ZN3gcn9ExceptionC1ERKSs @581
    _ZN3gcn9ExceptionC1ERKSsS2_S2_j @582
    _ZN3gcn9ExceptionC1Ev @583
    _ZN3gcn9ExceptionC2ERKSs @584
    _ZN3gcn9ExceptionC2ERKSsS2_S2_j @585
    _ZN3gcn9ExceptionC2Ev @586
    _ZN3gcn9ImageFont10drawStringEPNS_8GraphicsERKSsii @587
    _ZN3gcn9ImageFont12scanForGlyphEhiiRKNS_5ColorE @588
    _ZN3gcn9ImageFont13getRowSpacingEv @589
    _ZN3gcn9ImageFont13setRowSpacingEi @590
    _ZN3gcn9ImageFont15getGlyphSpacingEv @591
    _ZN3gcn9ImageFont15setGlyphSpacingEi @592
    _ZN3gcn9ImageFont16getStringIndexAtERKSsi @593
    _ZN3gcn9ImageFont9drawGlyphEPNS_8GraphicsEhii @594
    _ZN3gcn9ImageFontC1EPNS_5ImageERKSs @595
    _ZN3gcn9ImageFontC1ERKSsS2_ @596
    _ZN3gcn9ImageFontC1ERKSshh @597
    _ZN3gcn9ImageFontC2EPNS_5ImageERKSs @598
    _ZN3gcn9ImageFontC2ERKSsS2_ @599
    _ZN3gcn9ImageFontC2ERKSshh @600
    _ZN3gcn9ImageFontD0Ev @601
    _ZN3gcn9ImageFontD1Ev @602
    _ZN3gcn9ImageFontD2Ev @603
    _ZN3gcn9Rectangle6setAllEiiii @604
    _ZN3gcn9RectangleC1Eiiii @605
    _ZN3gcn9RectangleC1Ev @606
    _ZN3gcn9RectangleC2Eiiii @607
    _ZN3gcn9RectangleC2Ev @608
    _ZN3gcn9TextField10adjustSizeEv @609
    _ZN3gcn9TextField10keyPressedERNS_8KeyEventE @610
    _ZN3gcn9TextField11fontChangedEv @611
    _ZN3gcn9TextField12adjustHeightEv @612
    _ZN3gcn9TextField12mouseDraggedERNS_10MouseEventE @613
    _ZN3gcn9TextField12mousePressedERNS_10MouseEventE @614
    _ZN3gcn9TextField16setCaretPositionEj @615
    _ZN3gcn9TextField4drawEPNS_8GraphicsE @616
    _ZN3gcn9TextField7setTextERKSs @617
    _ZN3gcn9TextField9drawCaretEPNS_8GraphicsEi @618
    _ZN3gcn9TextField9fixScrollEv @619
    _ZN3gcn9TextFieldC1ERKSs @620
    _ZN3gcn9TextFieldC1Ev @621
    _ZN3gcn9TextFieldC2ERKSs @622
    _ZN3gcn9TextFieldC2Ev @623
    _ZNK3gcn10InputEvent10isConsumedEv @624
    _ZNK3gcn10InputEvent12isAltPressedEv @625
    _ZNK3gcn10InputEvent13isMetaPressedEv @626
    _ZNK3gcn10InputEvent14isShiftPressedEv @627
    _ZNK3gcn10InputEvent16isControlPressedEv @628
    _ZNK3gcn10MouseEvent13getClickCountEv @629
    _ZNK3gcn10MouseEvent4getXEv @630
    _ZNK3gcn10MouseEvent4getYEv @631
    _ZNK3gcn10MouseEvent7getTypeEv @632
    _ZNK3gcn10MouseEvent9getButtonEv @633
    _ZNK3gcn10MouseInput12getTimeStampEv @634
    _ZNK3gcn10MouseInput4getXEv @635
    _ZNK3gcn10MouseInput4getYEv @636
    _ZNK3gcn10MouseInput7getTypeEv @637
    _ZNK3gcn10MouseInput9getButtonEv @638
    _ZNK3gcn10ScrollArea17getScrollbarWidthEv @639
    _ZNK3gcn10ScrollArea23getUpButtonScrollAmountEv @640
    _ZNK3gcn10ScrollArea23getVerticalScrollAmountEv @641
    _ZNK3gcn10ScrollArea23getVerticalScrollPolicyEv @642
    _ZNK3gcn10ScrollArea25getDownButtonScrollAmountEv @643
    _ZNK3gcn10ScrollArea25getHorizontalScrollAmountEv @644
    _ZNK3gcn10ScrollArea25getHorizontalScrollPolicyEv @645
    _ZNK3gcn10ScrollArea25getLeftButtonScrollAmountEv @646
    _ZNK3gcn10ScrollArea26getRightButtonScrollAmountEv @647
    _ZNK3gcn10ScrollArea8isOpaqueEv @648
    _ZNK3gcn10TabbedArea13isTabSelectedEj @649
    _ZNK3gcn10TabbedArea19getSelectedTabIndexEv @650
    _ZNK3gcn11ActionEvent5getIdEv @651
    _ZNK3gcn11DefaultFont8getWidthERKSs @652
    _ZNK3gcn11DefaultFont9getHeightEv @653
    _ZNK3gcn11ImageButton8getImageEv @654
    _ZNK3gcn11RadioButton10getCaptionEv @655
    _ZNK3gcn11RadioButton10isSelectedEv @656
    _ZNK3gcn11RadioButton8getGroupEv @657
    _ZNK3gcn12FocusHandler10getFocusedEv @658
    _ZNK3gcn12FocusHandler15getModalFocusedEv @659
    _ZNK3gcn12FocusHandler25getModalMouseInputFocusedEv @660
    _ZNK3gcn12FocusHandler9isFocusedEPKNS_6WidgetE @661
    _ZNK3gcn3Gui11getGraphicsEv @662
    _ZNK3gcn3Gui6getTopEv @663
    _ZNK3gcn3Gui8getInputEv @664
    _ZNK3gcn3Key11isCharacterEv @665
    _ZNK3gcn3Key8getValueEv @666
    _ZNK3gcn3Key8isLetterEv @667
    _ZNK3gcn3Key8isNumberEv @668
    _ZNK3gcn3KeyeqERKS0_ @669
    _ZNK3gcn3KeyneERKS0_ @670
    _ZNK3gcn3Tab10getCaptionEv @671
    _ZNK3gcn4Font16getStringIndexAtERKSsi @672
    _ZNK3gcn4Icon8getImageEv @673
    _ZNK3gcn5ColoreqERKS0_ @674
    _ZNK3gcn5ColormiERKS0_ @675
    _ZNK3gcn5ColormlEf @676
    _ZNK3gcn5ColorneERKS0_ @677
    _ZNK3gcn5ColorplERKS0_ @678
    _ZNK3gcn5Event9getSourceEv @679
    _ZNK3gcn5Label10getCaptionEv @680
    _ZNK3gcn5Label12getAlignmentEv @681
    _ZNK3gcn6Button10getCaptionEv @682
    _ZNK3gcn6Button10getSpacingEv @683
    _ZNK3gcn6Button12getAlignmentEv @684
    _ZNK3gcn6Button9isPressedEv @685
    _ZNK3gcn6Slider11getScaleEndEv @686
    _ZNK3gcn6Slider13getScaleStartEv @687
    _ZNK3gcn6Slider13getStepLengthEv @688
    _ZNK3gcn6Slider14getOrientationEv @689
    _ZNK3gcn6Slider15getMarkerLengthEv @690
    _ZNK3gcn6Slider17getMarkerPositionEv @691
    _ZNK3gcn6Slider21markerPositionToValueEi @692
    _ZNK3gcn6Slider21valueToMarkerPositionEd @693
    _ZNK3gcn6Slider8getValueEv @694
    _ZNK3gcn6Widget11isFocusableEv @695
    _ZNK3gcn6Widget12getBaseColorEv @696
    _ZNK3gcn6Widget12getDimensionEv @697
    _ZNK3gcn6Widget12getFrameSizeEv @698
    _ZNK3gcn6Widget14isModalFocusedEv @699
    _ZNK3gcn6Widget14isTabInEnabledEv @700
    _ZNK3gcn6Widget15isTabOutEnabledEv @701
    _ZNK3gcn6Widget16getActionEventIdEv @702
    _ZNK3gcn6Widget17getSelectionColorEv @703
    _ZNK3gcn6Widget18getBackgroundColorEv @704
    _ZNK3gcn6Widget18getForegroundColorEv @705
    _ZNK3gcn6Widget19getAbsolutePositionERiS1_ @706
    _ZNK3gcn6Widget24isModalMouseInputFocusedEv @707
    _ZNK3gcn6Widget4getXEv @708
    _ZNK3gcn6Widget4getYEv @709
    _ZNK3gcn6Widget7getFontEv @710
    _ZNK3gcn6Widget8getWidthEv @711
    _ZNK3gcn6Widget9getHeightEv @712
    _ZNK3gcn6Widget9getParentEv @713
    _ZNK3gcn6Widget9isEnabledEv @714
    _ZNK3gcn6Widget9isFocusedEv @715
    _ZNK3gcn6Widget9isVisibleEv @716
    _ZNK3gcn6Window10getCaptionEv @717
    _ZNK3gcn6Window10getPaddingEv @718
    _ZNK3gcn6Window12getAlignmentEv @719
    _ZNK3gcn6Window9isMovableEv @720
    _ZNK3gcn7ListBox11getSelectedEv @721
    _ZNK3gcn7ListBox12getRowHeightEv @722
    _ZNK3gcn7ListBox17isWrappingEnabledEv @723
    _ZNK3gcn7TextBox10getTextRowEi @724
    _ZNK3gcn7TextBox10isEditableEv @725
    _ZNK3gcn7TextBox11getCaretRowEv @726
    _ZNK3gcn7TextBox14getCaretColumnEv @727
    _ZNK3gcn7TextBox15getNumberOfRowsEv @728
    _ZNK3gcn7TextBox16getCaretPositionEv @729
    _ZNK3gcn7TextBox7getTextEv @730
    _ZNK3gcn8CheckBox10getCaptionEv @731
    _ZNK3gcn8CheckBox10isSelectedEv @732
    _ZNK3gcn8DropDown11getSelectedEv @733
    _ZNK3gcn8KeyEvent12isNumericPadEv @734
    _ZNK3gcn8KeyEvent6getKeyEv @735
    _ZNK3gcn8KeyEvent7getTypeEv @736
    _ZNK3gcn8KeyInput12isAltPressedEv @737
    _ZNK3gcn8KeyInput12isNumericPadEv @738
    _ZNK3gcn8KeyInput13isMetaPressedEv @739
    _ZNK3gcn8KeyInput14isShiftPressedEv @740
    _ZNK3gcn8KeyInput16isControlPressedEv @741
    _ZNK3gcn8KeyInput6getKeyEv @742
    _ZNK3gcn8KeyInput7getTypeEv @743
    _ZNK3gcn9Container8isOpaqueEv @744
    _ZNK3gcn9Exception10getMessageEv @745
    _ZNK3gcn9Exception11getFilenameEv @746
    _ZNK3gcn9Exception11getFunctionEv @747
    _ZNK3gcn9Exception7getLineEv @748
    _ZNK3gcn9ImageFont8getWidthERKSs @749
    _ZNK3gcn9ImageFont8getWidthEh @750
    _ZNK3gcn9ImageFont9getHeightEv @751
    _ZNK3gcn9Rectangle13isPointInRectEii @752
    _ZNK3gcn9Rectangle14isIntersectingERKS0_ @753
    _ZNK3gcn9TextField16getCaretPositionEv @754
    _ZNK3gcn9TextField7getTextEv @755
    _ZTVN3gcn10InputEventE @756 DATA
    _ZTVN3gcn10MouseEventE @757 DATA
    _ZTVN3gcn10ScrollAreaE @758 DATA
    _ZTVN3gcn10TabbedAreaE @759 DATA
    _ZTVN3gcn11ActionEventE @760 DATA
    _ZTVN3gcn11DefaultFontE @761 DATA
    _ZTVN3gcn11ImageButtonE @762 DATA
    _ZTVN3gcn11KeyListenerE @763 DATA
    _ZTVN3gcn11RadioButtonE @764 DATA
    _ZTVN3gcn12FocusHandlerE @765 DATA
    _ZTVN3gcn12GenericInputE @766 DATA
    _ZTVN3gcn13DeathListenerE @767 DATA
    _ZTVN3gcn13FocusListenerE @768 DATA
    _ZTVN3gcn13MouseListenerE @769 DATA
    _ZTVN3gcn14ActionListenerE @770 DATA
    _ZTVN3gcn14BasicContainerE @771 DATA
    _ZTVN3gcn14SelectionEventE @772 DATA
    _ZTVN3gcn17SelectionListenerE @773 DATA
    _ZTVN3gcn3GuiE @774 DATA
    _ZTVN3gcn3TabE @775 DATA
    _ZTVN3gcn4FontE @776 DATA
    _ZTVN3gcn4IconE @777 DATA
    _ZTVN3gcn5EventE @778 DATA
    _ZTVN3gcn5ImageE @779 DATA
    _ZTVN3gcn5InputE @780 DATA
    _ZTVN3gcn5LabelE @781 DATA
    _ZTVN3gcn6ButtonE @782 DATA
    _ZTVN3gcn6SliderE @783 DATA
    _ZTVN3gcn6WidgetE @784 DATA
    _ZTVN3gcn6WindowE @785 DATA
    _ZTVN3gcn7ListBoxE @786 DATA
    _ZTVN3gcn7TextBoxE @787 DATA
    _ZTVN3gcn8CheckBoxE @788 DATA
    _ZTVN3gcn8DropDownE @789 DATA
    _ZTVN3gcn8GraphicsE @790 DATA
    _ZTVN3gcn8KeyEventE @791 DATA
    _ZTVN3gcn9ContainerE @792 DATA
    _ZTVN3gcn9ImageFontE @793 DATA
    _ZTVN3gcn9TextFieldE @794 DATA
    _ZThn168_N3gcn10ScrollAreaD0Ev @795
    _ZThn168_N3gcn10ScrollAreaD1Ev @796
    _ZThn168_N3gcn11ImageButtonD0Ev @797
    _ZThn168_N3gcn11ImageButtonD1Ev @798
    _ZThn168_N3gcn11RadioButton12mouseClickedERNS_10MouseEventE @799
    _ZThn168_N3gcn11RadioButton12mouseDraggedERNS_10MouseEventE @800
    _ZThn168_N3gcn11RadioButtonD0Ev @801
    _ZThn168_N3gcn11RadioButtonD1Ev @802
    _ZThn168_N3gcn14BasicContainer5deathERKNS_5EventE @803
    _ZThn168_N3gcn14BasicContainerD0Ev @804
    _ZThn168_N3gcn14BasicContainerD1Ev @805
    _ZThn168_N3gcn3TabD0Ev @806
    _ZThn168_N3gcn3TabD1Ev @807
    _ZThn168_N3gcn6Button11mouseExitedERNS_10MouseEventE @808
    _ZThn168_N3gcn6Button12mouseDraggedERNS_10MouseEventE @809
    _ZThn168_N3gcn6Button12mouseEnteredERNS_10MouseEventE @810
    _ZThn168_N3gcn6Button12mousePressedERNS_10MouseEventE @811
    _ZThn168_N3gcn6Button13mouseReleasedERNS_10MouseEventE @812
    _ZThn168_N3gcn6ButtonD0Ev @813
    _ZThn168_N3gcn6ButtonD1Ev @814
    _ZThn168_N3gcn6Slider12mouseDraggedERNS_10MouseEventE @815
    _ZThn168_N3gcn6Slider12mousePressedERNS_10MouseEventE @816
    _ZThn168_N3gcn6Slider17mouseWheelMovedUpERNS_10MouseEventE @817
    _ZThn168_N3gcn6Slider19mouseWheelMovedDownERNS_10MouseEventE @818
    _ZThn168_N3gcn6SliderD0Ev @819
    _ZThn168_N3gcn6SliderD1Ev @820
    _ZThn168_N3gcn6WindowD0Ev @821
    _ZThn168_N3gcn6WindowD1Ev @822
    _ZThn168_N3gcn7ListBox12mouseDraggedERNS_10MouseEventE @823
    _ZThn168_N3gcn7ListBox12mousePressedERNS_10MouseEventE @824
    _ZThn168_N3gcn7ListBox17mouseWheelMovedUpERNS_10MouseEventE @825
    _ZThn168_N3gcn7ListBox19mouseWheelMovedDownERNS_10MouseEventE @826
    _ZThn168_N3gcn7ListBoxD0Ev @827
    _ZThn168_N3gcn7ListBoxD1Ev @828
    _ZThn168_N3gcn7TextBox12mouseDraggedERNS_10MouseEventE @829
    _ZThn168_N3gcn7TextBox12mousePressedERNS_10MouseEventE @830
    _ZThn168_N3gcn7TextBoxD0Ev @831
    _ZThn168_N3gcn7TextBoxD1Ev @832
    _ZThn168_N3gcn8CheckBox12mouseClickedERNS_10MouseEventE @833
    _ZThn168_N3gcn8CheckBox12mouseDraggedERNS_10MouseEventE @834
    _ZThn168_N3gcn8CheckBoxD0Ev @835
    _ZThn168_N3gcn8CheckBoxD1Ev @836
    _ZThn168_N3gcn9ContainerD0Ev @837
    _ZThn168_N3gcn9ContainerD1Ev @838
    _ZThn168_N3gcn9TextField12mouseDraggedERNS_10MouseEventE @839
    _ZThn168_N3gcn9TextField12mousePressedERNS_10MouseEventE @840
    _ZThn168_N3gcn9TextFieldD0Ev @841
    _ZThn168_N3gcn9TextFieldD1Ev @842
    _ZThn172_N3gcn10TabbedArea5deathERKNS_5EventE @843
    _ZThn172_N3gcn10TabbedAreaD0Ev @844
    _ZThn172_N3gcn10TabbedAreaD1Ev @845
    _ZThn172_N3gcn11ImageButtonD0Ev @846
    _ZThn172_N3gcn11ImageButtonD1Ev @847
    _ZThn172_N3gcn11RadioButton10keyPressedERNS_8KeyEventE @848
    _ZThn172_N3gcn11RadioButtonD0Ev @849
    _ZThn172_N3gcn11RadioButtonD1Ev @850
    _ZThn172_N3gcn6Button10keyPressedERNS_8KeyEventE @851
    _ZThn172_N3gcn6Button11keyReleasedERNS_8KeyEventE @852
    _ZThn172_N3gcn6ButtonD0Ev @853
    _ZThn172_N3gcn6ButtonD1Ev @854
    _ZThn172_N3gcn6Slider10keyPressedERNS_8KeyEventE @855
    _ZThn172_N3gcn6SliderD0Ev @856
    _ZThn172_N3gcn6SliderD1Ev @857
    _ZThn172_N3gcn7ListBox10keyPressedERNS_8KeyEventE @858
    _ZThn172_N3gcn7ListBoxD0Ev @859
    _ZThn172_N3gcn7ListBoxD1Ev @860
    _ZThn172_N3gcn7TextBox10keyPressedERNS_8KeyEventE @861
    _ZThn172_N3gcn7TextBoxD0Ev @862
    _ZThn172_N3gcn7TextBoxD1Ev @863
    _ZThn172_N3gcn8CheckBox10keyPressedERNS_8KeyEventE @864
    _ZThn172_N3gcn8CheckBoxD0Ev @865
    _ZThn172_N3gcn8CheckBoxD1Ev @866
    _ZThn172_N3gcn8DropDown5deathERKNS_5EventE @867
    _ZThn172_N3gcn8DropDownD0Ev @868
    _ZThn172_N3gcn8DropDownD1Ev @869
    _ZThn172_N3gcn9TextField10keyPressedERNS_8KeyEventE @870
    _ZThn172_N3gcn9TextFieldD0Ev @871
    _ZThn172_N3gcn9TextFieldD1Ev @872
    _ZThn176_N3gcn11ImageButtonD0Ev @873
    _ZThn176_N3gcn11ImageButtonD1Ev @874
    _ZThn176_N3gcn6Button9focusLostERKNS_5EventE @875
    _ZThn176_N3gcn6ButtonD0Ev @876
    _ZThn176_N3gcn6ButtonD1Ev @877
    _ZThn180_N3gcn10ScrollArea12mouseDraggedERNS_10MouseEventE @878
    _ZThn180_N3gcn10ScrollArea12mousePressedERNS_10MouseEventE @879
    _ZThn180_N3gcn10ScrollArea13mouseReleasedERNS_10MouseEventE @880
    _ZThn180_N3gcn10ScrollArea17mouseWheelMovedUpERNS_10MouseEventE @881
    _ZThn180_N3gcn10ScrollArea19mouseWheelMovedDownERNS_10MouseEventE @882
    _ZThn180_N3gcn10ScrollAreaD0Ev @883
    _ZThn180_N3gcn10ScrollAreaD1Ev @884
    _ZThn180_N3gcn3Tab11mouseExitedERNS_10MouseEventE @885
    _ZThn180_N3gcn3Tab12mouseEnteredERNS_10MouseEventE @886
    _ZThn180_N3gcn3TabD0Ev @887
    _ZThn180_N3gcn3TabD1Ev @888
    _ZThn184_N3gcn10TabbedArea10keyPressedERNS_8KeyEventE @889
    _ZThn184_N3gcn10TabbedAreaD0Ev @890
    _ZThn184_N3gcn10TabbedAreaD1Ev @891
    _ZThn184_N3gcn6Window12mouseDraggedERNS_10MouseEventE @892
    _ZThn184_N3gcn6Window12mousePressedERNS_10MouseEventE @893
    _ZThn184_N3gcn6Window13mouseReleasedERNS_10MouseEventE @894
    _ZThn184_N3gcn6WindowD0Ev @895
    _ZThn184_N3gcn6WindowD1Ev @896
    _ZThn184_N3gcn8DropDown10keyPressedERNS_8KeyEventE @897
    _ZThn184_N3gcn8DropDownD0Ev @898
    _ZThn184_N3gcn8DropDownD1Ev @899
    _ZThn188_N3gcn10TabbedArea12mousePressedERNS_10MouseEventE @900
    _ZThn188_N3gcn10TabbedAreaD0Ev @901
    _ZThn188_N3gcn10TabbedAreaD1Ev @902
    _ZThn188_N3gcn8DropDown12mouseDraggedERNS_10MouseEventE @903
    _ZThn188_N3gcn8DropDown12mousePressedERNS_10MouseEventE @904
    _ZThn188_N3gcn8DropDown13mouseReleasedERNS_10MouseEventE @905
    _ZThn188_N3gcn8DropDown17mouseWheelMovedUpERNS_10MouseEventE @906
    _ZThn188_N3gcn8DropDown19mouseWheelMovedDownERNS_10MouseEventE @907
    _ZThn188_N3gcn8DropDownD0Ev @908
    _ZThn188_N3gcn8DropDownD1Ev @909
    _ZThn192_N3gcn8DropDown9focusLostERKNS_5EventE @910
    _ZThn192_N3gcn8DropDownD0Ev @911
    _ZThn192_N3gcn8DropDownD1Ev @912
    _ZThn196_N3gcn8DropDown12valueChangedERKNS_14SelectionEventE @913
    _ZThn196_N3gcn8DropDownD0Ev @914
    _ZThn196_N3gcn8DropDownD1Ev @915
    _ZThn4_N3gcn10TabbedArea4drawEPNS_8GraphicsE @916
    _ZThn4_N3gcn10TabbedArea5deathERKNS_5EventE @917
    _ZThn4_N3gcn10TabbedArea5logicEv @918
    _ZThn4_N3gcn10TabbedAreaD0Ev @919
    _ZThn4_N3gcn10TabbedAreaD1Ev @920
    _ZThn4_N3gcn8DropDown15getChildrenAreaEv @921
    _ZThn4_N3gcn8DropDown4drawEPNS_8GraphicsE @922
    _ZThn4_N3gcn8DropDown5deathERKNS_5EventE @923
    _ZThn4_N3gcn8DropDownD0Ev @924
    _ZThn4_N3gcn8DropDownD1Ev @925
